; Function Attrs: nofree nounwind uwtable
define i32 @Res6_FindBestDiv(ptr noundef readonly captures(none) %0, ptr noundef writeonly %1) local_unnamed_addr #7 {
  %3 = getelementptr inbounds nuw i8, ptr %0, i64 4
  %4 = load i32, ptr %3, align 4, !tbaa !37
  %5 = icmp sgt i32 %4, 0
  br i1 %5, label %.lr.ph, label %._crit_edge

.lr.ph:                                           ; preds = %2
  %6 = getelementptr inbounds nuw i8, ptr %0, i64 20
  %7 = getelementptr inbounds nuw i8, ptr %0, i64 56
  %8 = getelementptr inbounds nuw i8, ptr %0, i64 64
  br label %9

9:                                                ; preds = %.lr.ph, %Res6_FindGetCost.exit
  %indvars.iv = phi i64 [ 0, %.lr.ph ], [ %indvars.iv.next, %Res6_FindGetCost.exit ]
  %.01422 = phi i32 [ 1000000000, %.lr.ph ], [ %spec.select20, %Res6_FindGetCost.exit ]
  %.01521 = phi i32 [ -1, %.lr.ph ], [ %spec.select, %Res6_FindGetCost.exit ]
  %10 = load i32, ptr %6, align 4, !tbaa !56
  %11 = icmp sgt i32 %10, 0
  br i1 %11, label %.lr.ph.i, label %Res6_FindGetCost.exit

.lr.ph.i:                                         ; preds = %9
  %12 = load ptr, ptr %7, align 8, !tbaa !40
  %13 = getelementptr inbounds nuw ptr, ptr %12, i64 %indvars.iv
  %14 = load ptr, ptr %13, align 8, !tbaa !41
  %15 = load ptr, ptr %8, align 8, !tbaa !49
  %16 = load ptr, ptr %15, align 8, !tbaa !41
  %17 = and i64 %indvars.iv, 4294967295
  %18 = xor i64 %17, 1
  %19 = getelementptr inbounds nuw ptr, ptr %12, i64 %18
  %20 = load ptr, ptr %19, align 8, !tbaa !41
  %21 = getelementptr inbounds nuw i8, ptr %15, i64 8
  %22 = load ptr, ptr %21, align 8, !tbaa !41
  %wide.trip.count.i = zext nneg i32 %10 to i64
  br label %23

23:                                               ; preds = %23, %.lr.ph.i
  %indvars.iv.i = phi i64 [ 0, %.lr.ph.i ], [ %indvars.iv.next.i, %23 ]
  %.016.i = phi i32 [ 0, %.lr.ph.i ], [ %53, %23 ]
  %24 = getelementptr inbounds nuw i64, ptr %14, i64 %indvars.iv.i
  %25 = load i64, ptr %24, align 8, !tbaa !42
  %26 = getelementptr inbounds nuw i64, ptr %16, i64 %indvars.iv.i
  %27 = load i64, ptr %26, align 8, !tbaa !42
  %28 = and i64 %27, %25
  %29 = getelementptr inbounds nuw i64, ptr %20, i64 %indvars.iv.i
  %30 = load i64, ptr %29, align 8, !tbaa !42
  %31 = getelementptr inbounds nuw i64, ptr %22, i64 %indvars.iv.i
  %32 = load i64, ptr %31, align 8, !tbaa !42
  %33 = and i64 %32, %30
  %34 = or i64 %33, %28
  %35 = lshr i64 %34, 1
  %36 = and i64 %35, 6148914691236517205
  %37 = sub i64 %34, %36
  %38 = and i64 %37, 3689348814741910323
  %39 = lshr i64 %37, 2
  %40 = and i64 %39, 3689348814741910323
  %41 = add nuw nsw i64 %40, %38
  %42 = lshr i64 %41, 4
  %43 = add nuw nsw i64 %42, %41
  %44 = and i64 %43, 1085102592571150095
  %45 = lshr i64 %44, 8
  %46 = add nuw nsw i64 %45, %44
  %47 = lshr i64 %46, 16
  %48 = add nuw nsw i64 %47, %46
  %49 = lshr i64 %48, 32
  %50 = add nuw nsw i64 %49, %48
  %51 = trunc i64 %50 to i32
  %52 = and i32 %51, 255
  %53 = add nuw nsw i32 %52, %.016.i
  %indvars.iv.next.i = add nuw nsw i64 %indvars.iv.i, 1
  %exitcond.not.i = icmp eq i64 %indvars.iv.next.i, %wide.trip.count.i
  br i1 %exitcond.not.i, label %Res6_FindGetCost.exit, label %23, !llvm.loop !76

Res6_FindGetCost.exit:                            ; preds = %23, %9
  %.0.lcssa.i = phi i32 [ 0, %9 ], [ %53, %23 ]
  %.pre-phi = trunc i64 %indvars.iv to i32
  %54 = tail call i32 (ptr, ...) @printf(ptr noundef nonnull dereferenceable(1) @.str.21, i32 noundef %.pre-phi, i32 noundef %.0.lcssa.i)
  %.not19 = icmp slt i32 %.01422, %.0.lcssa.i
  %spec.select = select i1 %.not19, i32 %.01521, i32 %.pre-phi
  %spec.select20 = tail call i32 @llvm.smin.i32(i32 %.01422, i32 %.0.lcssa.i)
  %indvars.iv.next = add nuw nsw i64 %indvars.iv, 1
  %55 = load i32, ptr %3, align 4, !tbaa !37
  %56 = shl nsw i32 %55, 1
  %57 = sext i32 %56 to i64
  %58 = icmp slt i64 %indvars.iv.next, %57
  br i1 %58, label %9, label %._crit_edge, !llvm.loop !77

._crit_edge:                                      ; preds = %Res6_FindGetCost.exit, %2
  %.015.lcssa = phi i32 [ -1, %2 ], [ %spec.select, %Res6_FindGetCost.exit ]
  %.014.lcssa = phi i32 [ 1000000000, %2 ], [ %spec.select20, %Res6_FindGetCost.exit ]
  %.not = icmp eq ptr %1, null
  br i1 %.not, label %60, label %59

59:                                               ; preds = %._crit_edge
  store i32 %.014.lcssa, ptr %1, align 4, !tbaa !3
  br label %60

60:                                               ; preds = %59, %._crit_edge
  ret i32 %.015.lcssa
}